target datalayout = "e-m:e-p270:32:32-p271:32:32-p272:64:64-i64:64-i128:128-f80:128-n8:16:32:64-S128"
target triple = "x86_64-pc-linux-gnu"

%struct.List = type { i32, i32, i32, ptr, [0 x %union.ListCell] }
%union.ListCell = type { ptr }
%struct.Node = type { i32 }
%struct.RangeTblRef = type { i32, i32 }
%struct.RangeTblEntry = type { i32, ptr, ptr, i32, i32, i8, i8, i32, i32, ptr, ptr, i8, i32, i32, ptr, ptr, ptr, ptr, ptr, i8, ptr, ptr, ptr, i32, i8, ptr, ptr, ptr, ptr, double, ptr, i8, i8, ptr }
%struct.Query = type { i32, i32, i32, i64, i8, ptr, i32, i8, i8, i8, i8, i8, i8, i8, i8, i8, i8, i8, ptr, ptr, ptr, ptr, ptr, i32, ptr, ptr, i32, ptr, ptr, ptr, ptr, ptr, i8, ptr, ptr, ptr, ptr, ptr, ptr, ptr, i32, ptr, ptr, ptr, ptr, i32, i32 }
%struct.SetOperationStmt = type { i32, i32, i8, ptr, ptr, ptr, ptr, ptr, ptr }

@.str.1 = private unnamed_addr constant [11 x i8] c"allpaths.c\00", align 1
@.str.3 = private unnamed_addr constant [27 x i8] c"unrecognized node type: %d\00", align 1
@__func__.recurse_pushdown_safe = private unnamed_addr constant [22 x i8] c"recurse_pushdown_safe\00", align 1

; Function Attrs: inlinehint nounwind uwtable
define internal ptr @list_nth_cell(ptr noundef %0, i32 noundef %1) #4 {
  %3 = alloca ptr, align 8
  %4 = alloca i32, align 4
  store ptr %0, ptr %3, align 8
  store i32 %1, ptr %4, align 4
  %5 = load ptr, ptr %3, align 8
  %6 = getelementptr inbounds nuw %struct.List, ptr %5, i32 0, i32 3
  %7 = load ptr, ptr %6, align 8
  %8 = load i32, ptr %4, align 4
  %9 = sext i32 %8 to i64
  %10 = getelementptr inbounds %union.ListCell, ptr %7, i64 %9
  ret ptr %10
}

; Function Attrs: inlinehint nounwind uwtable
define internal ptr @list_nth(ptr noundef %0, i32 noundef %1) #4 {
  %3 = alloca ptr, align 8
  %4 = alloca i32, align 4
  store ptr %0, ptr %3, align 8
  store i32 %1, ptr %4, align 4
  %5 = load ptr, ptr %3, align 8
  %6 = load i32, ptr %4, align 4
  %7 = call ptr @list_nth_cell(ptr noundef %5, i32 noundef %6)
  %8 = load ptr, ptr %7, align 8
  ret ptr %8
}

; Function Attrs: nounwind uwtable
define internal zeroext i1 @recurse_pushdown_safe(ptr noundef %0, ptr noundef %1, ptr noundef %2) #0 {
  %4 = alloca i1, align 1
  %5 = alloca ptr, align 8
  %6 = alloca ptr, align 8
  %7 = alloca ptr, align 8
  %8 = alloca ptr, align 8
  %9 = alloca ptr, align 8
  %10 = alloca ptr, align 8
  %11 = alloca ptr, align 8
  %12 = alloca i32, align 4
  store ptr %0, ptr %5, align 8
  store ptr %1, ptr %6, align 8
  store ptr %2, ptr %7, align 8
  %13 = load ptr, ptr %5, align 8
  %14 = getelementptr inbounds nuw %struct.Node, ptr %13, i32 0, i32 0
  %15 = load i32, ptr %14, align 4
  %16 = icmp eq i32 %15, 63
  br i1 %16, label %17, label %34

17:                                               ; preds = %3
  call void @llvm.lifetime.start.p0(i64 8, ptr %8) #8
  %18 = load ptr, ptr %5, align 8
  store ptr %18, ptr %8, align 8
  call void @llvm.lifetime.start.p0(i64 8, ptr %9) #8
  %19 = load ptr, ptr %6, align 8
  %20 = getelementptr inbounds nuw %struct.Query, ptr %19, i32 0, i32 19
  %21 = load ptr, ptr %20, align 8
  %22 = load ptr, ptr %8, align 8
  %23 = getelementptr inbounds nuw %struct.RangeTblRef, ptr %22, i32 0, i32 1
  %24 = load i32, ptr %23, align 4
  %25 = sub i32 %24, 1
  %26 = call ptr @list_nth(ptr noundef %21, i32 noundef %25)
  store ptr %26, ptr %9, align 8
  call void @llvm.lifetime.start.p0(i64 8, ptr %10) #8
  %27 = load ptr, ptr %9, align 8
  %28 = getelementptr inbounds nuw %struct.RangeTblEntry, ptr %27, i32 0, i32 10
  %29 = load ptr, ptr %28, align 8
  store ptr %29, ptr %10, align 8
  %30 = load ptr, ptr %10, align 8
  %31 = load ptr, ptr %6, align 8
  %32 = load ptr, ptr %7, align 8
  %33 = call zeroext i1 @subquery_is_pushdown_safe(ptr noundef %30, ptr noundef %31, ptr noundef %32)
  store i1 %33, ptr %4, align 1
  call void @llvm.lifetime.end.p0(i64 8, ptr %10) #8
  call void @llvm.lifetime.end.p0(i64 8, ptr %9) #8
  call void @llvm.lifetime.end.p0(i64 8, ptr %8) #8
  br label %81

34:                                               ; preds = %3
  %35 = load ptr, ptr %5, align 8
  %36 = getelementptr inbounds nuw %struct.Node, ptr %35, i32 0, i32 0
  %37 = load i32, ptr %36, align 4
  %38 = icmp eq i32 %37, 142
  br i1 %38, label %39, label %66

39:                                               ; preds = %34
  call void @llvm.lifetime.start.p0(i64 8, ptr %11) #8
  %40 = load ptr, ptr %5, align 8
  store ptr %40, ptr %11, align 8
  %41 = load ptr, ptr %11, align 8
  %42 = getelementptr inbounds nuw %struct.SetOperationStmt, ptr %41, i32 0, i32 1
  %43 = load i32, ptr %42, align 4
  %44 = icmp eq i32 %43, 3
  br i1 %44, label %45, label %46

45:                                               ; preds = %39
  store i1 false, ptr %4, align 1
  store i32 1, ptr %12, align 4
  br label %63

46:                                               ; preds = %39
  %47 = load ptr, ptr %11, align 8
  %48 = getelementptr inbounds nuw %struct.SetOperationStmt, ptr %47, i32 0, i32 3
  %49 = load ptr, ptr %48, align 8
  %50 = load ptr, ptr %6, align 8
  %51 = load ptr, ptr %7, align 8
  %52 = call zeroext i1 @recurse_pushdown_safe(ptr noundef %49, ptr noundef %50, ptr noundef %51)
  br i1 %52, label %54, label %53

53:                                               ; preds = %46
  store i1 false, ptr %4, align 1
  store i32 1, ptr %12, align 4
  br label %63

54:                                               ; preds = %46
  %55 = load ptr, ptr %11, align 8
  %56 = getelementptr inbounds nuw %struct.SetOperationStmt, ptr %55, i32 0, i32 4
  %57 = load ptr, ptr %56, align 8
  %58 = load ptr, ptr %6, align 8
  %59 = load ptr, ptr %7, align 8
  %60 = call zeroext i1 @recurse_pushdown_safe(ptr noundef %57, ptr noundef %58, ptr noundef %59)
  br i1 %60, label %62, label %61

61:                                               ; preds = %54
  store i1 false, ptr %4, align 1
  store i32 1, ptr %12, align 4
  br label %63

62:                                               ; preds = %54
  store i32 0, ptr %12, align 4
  br label %63

63:                                               ; preds = %62, %61, %53, %45
  call void @llvm.lifetime.end.p0(i64 8, ptr %11) #8
  %64 = load i32, ptr %12, align 4
  switch i32 %64, label %83 [
    i32 0, label %65
    i32 1, label %81
  ]

65:                                               ; preds = %63
  br label %79

66:                                               ; preds = %34
  br label %67

67:                                               ; preds = %66
  br i1 true, label %68, label %70

68:                                               ; preds = %67
  %69 = call zeroext i1 @errstart_cold(i32 noundef 21, ptr noundef null) #9
  br i1 %69, label %72, label %77

70:                                               ; preds = %67
  %71 = call zeroext i1 @errstart(i32 noundef 21, ptr noundef null)
  br i1 %71, label %72, label %77

72:                                               ; preds = %70, %68
  %73 = load ptr, ptr %5, align 8
  %74 = getelementptr inbounds nuw %struct.Node, ptr %73, i32 0, i32 0
  %75 = load i32, ptr %74, align 4
  %76 = call i32 (ptr, ...) @errmsg_internal(ptr noundef @.str.3, i32 noundef %75)
  call void @errfinish(ptr noundef @.str.1, i32 noundef 3684, ptr noundef @__func__.recurse_pushdown_safe)
  br label %77

77:                                               ; preds = %72, %70, %68
  unreachable

78:                                               ; No predecessors!
  br label %79

79:                                               ; preds = %78, %65
  br label %80

80:                                               ; preds = %79
  store i1 true, ptr %4, align 1
  br label %81

81:                                               ; preds = %80, %63, %17
  %82 = load i1, ptr %4, align 1
  ret i1 %82

83:                                               ; preds = %63
  unreachable
}