; Function Attrs: nounwind uwtable
define internal fastcc zeroext i1 @recurse_pushdown_safe(ptr noundef readonly captures(none) %0, ptr noundef captures(none) %1, ptr noundef nonnull captures(none) %2) unnamed_addr #0 {
  br label %tailrecurse

tailrecurse:                                      ; preds = %26, %3
  %.tr = phi ptr [ %0, %3 ], [ %28, %26 ]
  %4 = load i32, ptr %.tr, align 4
  switch i32 %4, label %29 [
    i32 63, label %5
    i32 142, label %18
  ]

5:                                                ; preds = %tailrecurse
  %6 = getelementptr inbounds nuw i8, ptr %1, i64 64
  %7 = load ptr, ptr %6, align 8
  %8 = getelementptr inbounds nuw i8, ptr %.tr, i64 4
  %9 = load i32, ptr %8, align 4
  %10 = add i32 %9, -1
  %11 = getelementptr i8, ptr %7, i64 16
  %.val = load ptr, ptr %11, align 8
  %12 = sext i32 %10 to i64
  %13 = getelementptr inbounds %union.ListCell, ptr %.val, i64 %12
  %14 = load ptr, ptr %13, align 8
  %15 = getelementptr inbounds nuw i8, ptr %14, i64 56
  %16 = load ptr, ptr %15, align 8
  %17 = tail call fastcc zeroext i1 @subquery_is_pushdown_safe(ptr noundef %16, ptr noundef %1, ptr noundef %2)
  br label %33

18:                                               ; preds = %tailrecurse
  %19 = getelementptr inbounds nuw i8, ptr %.tr, i64 4
  %20 = load i32, ptr %19, align 4
  %21 = icmp eq i32 %20, 3
  br i1 %21, label %33, label %22

22:                                               ; preds = %18
  %23 = getelementptr inbounds nuw i8, ptr %.tr, i64 16
  %24 = load ptr, ptr %23, align 8
  %25 = tail call fastcc zeroext i1 @recurse_pushdown_safe(ptr noundef %24, ptr noundef %1, ptr noundef %2)
  br i1 %25, label %26, label %33

26:                                               ; preds = %22
  %27 = getelementptr inbounds nuw i8, ptr %.tr, i64 24
  %28 = load ptr, ptr %27, align 8
  br label %tailrecurse

29:                                               ; preds = %tailrecurse
  %30 = tail call zeroext i1 @errstart_cold(i32 noundef 21, ptr noundef null) #10
  tail call void @llvm.assume(i1 %30)
  %31 = load i32, ptr %.tr, align 4
  %32 = tail call i32 (ptr, ...) @errmsg_internal(ptr noundef nonnull @.str.3, i32 noundef %31) #9
  tail call void @errfinish(ptr noundef nonnull @.str.1, i32 noundef 3684, ptr noundef nonnull @__func__.recurse_pushdown_safe) #9
  unreachable

33:                                               ; preds = %18, %22, %5
  %.019 = phi i1 [ %17, %5 ], [ false, %18 ], [ false, %22 ]
  ret i1 %.019
}